; Function Attrs: mustprogress nounwind uwtable
define hidden void @_ZN11ZGeneration9set_phaseENS_5PhaseE(ptr nocapture noundef nonnull align 64 dereferenceable(6592) %0, i32 noundef %1) local_unnamed_addr #0 align 2 {
  %3 = getelementptr inbounds i8, ptr %0, i64 3216
  %4 = load i32, ptr %3, align 16
  %5 = getelementptr inbounds i8, ptr %0, i64 8
  %6 = load i8, ptr %5, align 8
  %7 = icmp eq i8 %6, 1
  %spec.select.i = select i1 %7, i64 3, i64 0
  %8 = icmp eq i32 %1, 2
  %9 = add nuw nsw i64 %spec.select.i, 2
  %.1.i = select i1 %8, i64 %9, i64 %spec.select.i
  %10 = icmp eq i32 %4, 0
  %11 = icmp eq i32 %1, 1
  %or.cond.i = and i1 %11, %10
  %12 = zext i1 %or.cond.i to i64
  %.2.i = add nuw nsw i64 %.1.i, %12
  %13 = getelementptr inbounds [6 x ptr], ptr @__const._ZN11ZGeneration16log_phase_switchENS_5PhaseES0_.str, i64 0, i64 %.2.i
  %14 = load ptr, ptr %13, align 8
  %15 = getelementptr inbounds i8, ptr %0, i64 3220
  %16 = load i32, ptr %15, align 4
  tail call void (ptr, ...) @_ZN6Events20log_zgc_phase_switchEPKcz(ptr noundef nonnull @.str.62, ptr noundef %14, i32 noundef %16)
  store i32 %1, ptr %3, align 16
  ret void
}